; Function Attrs: mustprogress null_pointer_is_valid sspstrong uwtable
define void @_ZN12FilterAction19copyActionTriggeredEv(ptr noundef align 8 dereferenceable_or_null(56) %0) #0 align 2 personality ptr @__gxx_personality_v0 {
  %2 = alloca %class.QString, align 8
  %3 = alloca %class.QVariant, align 8
  %4 = tail call noundef ptr @_ZNK7QObject6senderEv(ptr noundef align 8 dereferenceable_or_null(16) %0)
  %5 = tail call noundef ptr @_ZNK11QMetaObject4castEPK7QObject(ptr noundef nonnull align 8 dereferenceable_or_null(56) @_ZN7QAction16staticMetaObjectE, ptr noundef %4)
  %.not = icmp eq ptr %5, null
  br i1 %.not, label %27, label %6

6:                                                ; preds = %1
  call void @llvm.lifetime.start.p0(i64 24, ptr nonnull %2) #20
  call void @llvm.lifetime.start.p0(i64 32, ptr nonnull %3) #20
  call void @_ZNK7QObject8propertyEPKc(ptr dead_on_unwind nonnull writable sret(%class.QVariant) align 8 %3, ptr noundef nonnull align 8 dereferenceable_or_null(16) %5, ptr noundef nonnull @.str.22)
  invoke void @_ZNK8QVariant8toStringEv(ptr dead_on_unwind nonnull writable sret(%class.QString) align 8 %2, ptr noundef nonnull align 8 dereferenceable_or_null(32) %3)
          to label %7 unwind label %14

7:                                                ; preds = %6
  call void @_ZN8QVariantD1Ev(ptr noundef nonnull align 8 dereferenceable_or_null(32) %3) #20
  call void @llvm.lifetime.end.p0(i64 32, ptr nonnull %3) #20
  %8 = getelementptr inbounds nuw i8, ptr %2, i64 16
  %9 = load i64, ptr %8, align 8
  %10 = icmp sgt i64 %9, 0
  br i1 %10, label %11, label %22

11:                                               ; preds = %7
  %12 = invoke noundef ptr @_ZN15QGuiApplication9clipboardEv()
          to label %13 unwind label %16

13:                                               ; preds = %11
  invoke void @_ZN10QClipboard7setTextERK7QStringNS_4ModeE(ptr noundef align 8 dereferenceable_or_null(16) %12, ptr noundef nonnull align 8 dereferenceable(24) %2, i32 noundef 0)
          to label %22 unwind label %16

14:                                               ; preds = %6
  %15 = landingpad { ptr, i32 }
          cleanup
  call void @_ZN8QVariantD1Ev(ptr noundef nonnull align 8 dereferenceable_or_null(32) %3) #20
  call void @llvm.lifetime.end.p0(i64 32, ptr nonnull %3) #20
  br label %_ZN7QStringD2Ev.exit

16:                                               ; preds = %13, %11
  %17 = landingpad { ptr, i32 }
          cleanup
  %18 = load ptr, ptr %2, align 8
  %.not.i.i.i = icmp eq ptr %18, null
  br i1 %.not.i.i.i, label %_ZN7QStringD2Ev.exit, label %_ZN17QArrayDataPointerIDsE5derefEv.exit.i.i

_ZN17QArrayDataPointerIDsE5derefEv.exit.i.i:      ; preds = %16
  %19 = atomicrmw sub ptr %18, i32 1 seq_cst, align 4
  %.not.i.i = icmp eq i32 %19, 1
  br i1 %.not.i.i, label %20, label %_ZN7QStringD2Ev.exit

20:                                               ; preds = %_ZN17QArrayDataPointerIDsE5derefEv.exit.i.i
  %21 = load ptr, ptr %2, align 8
  call void @_ZN10QArrayData10deallocateEPS_xx(ptr noundef %21, i64 noundef 2, i64 noundef 8) #20
  br label %_ZN7QStringD2Ev.exit

22:                                               ; preds = %13, %7
  %23 = load ptr, ptr %2, align 8
  %.not.i.i.i7 = icmp eq ptr %23, null
  br i1 %.not.i.i.i7, label %_ZN7QStringD2Ev.exit10, label %_ZN17QArrayDataPointerIDsE5derefEv.exit.i.i8

_ZN17QArrayDataPointerIDsE5derefEv.exit.i.i8:     ; preds = %22
  %24 = atomicrmw sub ptr %23, i32 1 seq_cst, align 4
  %.not.i.i9 = icmp eq i32 %24, 1
  br i1 %.not.i.i9, label %25, label %_ZN7QStringD2Ev.exit10

25:                                               ; preds = %_ZN17QArrayDataPointerIDsE5derefEv.exit.i.i8
  %26 = load ptr, ptr %2, align 8
  call void @_ZN10QArrayData10deallocateEPS_xx(ptr noundef %26, i64 noundef 2, i64 noundef 8) #20
  br label %_ZN7QStringD2Ev.exit10

_ZN7QStringD2Ev.exit10:                           ; preds = %22, %_ZN17QArrayDataPointerIDsE5derefEv.exit.i.i8, %25
  call void @llvm.lifetime.end.p0(i64 24, ptr nonnull %2) #20
  br label %27

27:                                               ; preds = %1, %_ZN7QStringD2Ev.exit10
  ret void

_ZN7QStringD2Ev.exit:                             ; preds = %20, %_ZN17QArrayDataPointerIDsE5derefEv.exit.i.i, %16, %14
  %.pn = phi { ptr, i32 } [ %15, %14 ], [ %17, %16 ], [ %17, %_ZN17QArrayDataPointerIDsE5derefEv.exit.i.i ], [ %17, %20 ]
  call void @llvm.lifetime.end.p0(i64 24, ptr nonnull %2) #20
  resume { ptr, i32 } %.pn
}